(lp1
S'matthew.fernandez@gmail.com'
p2
a(i__main__
Feed
p3
(dp4
S'url'
p5
S'http://altdevblogaday.com/feed/'
p6
sS'modified'
p7
NsS'to'
p8
NsS'etag'
p9
NsS'active'
p10
I01
sS'seen'
p11
(dp12
sba(i__main__
Feed
p13
(dp14
g5
S'http://verialg.iti.kit.edu/english/487.rss'
p15
sg7
Nsg8
Nsg9
Nsg10
I01
sg11
(dp16
sba(i__main__
Feed
p17
(dp18
g5
S'http://www.250bpm.com/feed/pages/pagename/blog/category/blog/t/250bpm-blogs/h/http%3A%2F%2Fwww.250bpm.com%2Fblog'
p19
sg7
Nsg8
Nsg9
Nsg10
I01
sg11
(dp20
sba.